target datalayout = "e-m:e-p270:32:32-p271:32:32-p272:64:64-i64:64-i128:128-f80:128-n8:16:32:64-S128"
target triple = "x86_64-pc-linux-gnu"

%struct.ref_dir = type { i32, i32, i32, ptr, ptr }
%struct.ref_entry = type { i8, %union.anon, [0 x i8] }
%union.anon = type { %struct.ref_value }
%struct.ref_value = type { %struct.object_id, ptr }
%struct.object_id = type { [32 x i8], i32 }

@.str.5 = private unnamed_addr constant [33 x i8] c"Reference directory conflict: %s\00", align 1
@.str.6 = private unnamed_addr constant [42 x i8] c"Duplicated ref, and SHA1s don't match: %s\00", align 1
@.str.7 = private unnamed_addr constant [19 x i8] c"Duplicated ref: %s\00", align 1

; Function Attrs: inlinehint nounwind uwtable
define internal i32 @oideq(ptr noundef %0, ptr noundef %1) #2 {
  %3 = alloca ptr, align 8
  %4 = alloca ptr, align 8
  store ptr %0, ptr %3, align 8, !tbaa !29
  store ptr %1, ptr %4, align 8, !tbaa !29
  %5 = load ptr, ptr %3, align 8, !tbaa !29
  %6 = getelementptr inbounds nuw %struct.object_id, ptr %5, i32 0, i32 0
  %7 = getelementptr inbounds [32 x i8], ptr %6, i64 0, i64 0
  %8 = load ptr, ptr %4, align 8, !tbaa !29
  %9 = getelementptr inbounds nuw %struct.object_id, ptr %8, i32 0, i32 0
  %10 = getelementptr inbounds [32 x i8], ptr %9, i64 0, i64 0
  %11 = call i32 @memcmp(ptr noundef %7, ptr noundef %10, i64 noundef 32) #8
  %12 = icmp ne i32 %11, 0
  %13 = xor i1 %12, true
  %14 = zext i1 %13 to i32
  ret i32 %14
}

; Function Attrs: nounwind uwtable
define internal i32 @is_dup_ref(ptr noundef %0, ptr noundef %1) #0 {
  %3 = alloca i32, align 4
  %4 = alloca ptr, align 8
  %5 = alloca ptr, align 8
  store ptr %0, ptr %4, align 8, !tbaa !9
  store ptr %1, ptr %5, align 8, !tbaa !9
  %6 = load ptr, ptr %4, align 8, !tbaa !9
  %7 = getelementptr inbounds nuw %struct.ref_entry, ptr %6, i32 0, i32 2
  %8 = getelementptr inbounds [0 x i8], ptr %7, i64 0, i64 0
  %9 = load ptr, ptr %5, align 8, !tbaa !9
  %10 = getelementptr inbounds nuw %struct.ref_entry, ptr %9, i32 0, i32 2
  %11 = getelementptr inbounds [0 x i8], ptr %10, i64 0, i64 0
  %12 = call i32 @strcmp(ptr noundef %8, ptr noundef %11) #8
  %13 = icmp ne i32 %12, 0
  br i1 %13, label %14, label %15

14:                                               ; preds = %2
  store i32 0, ptr %3, align 4
  br label %50

15:                                               ; preds = %2
  %16 = load ptr, ptr %4, align 8, !tbaa !9
  %17 = getelementptr inbounds nuw %struct.ref_entry, ptr %16, i32 0, i32 0
  %18 = load i8, ptr %17, align 8, !tbaa !21
  %19 = zext i8 %18 to i32
  %20 = and i32 %19, 16
  %21 = icmp ne i32 %20, 0
  br i1 %21, label %29, label %22

22:                                               ; preds = %15
  %23 = load ptr, ptr %5, align 8, !tbaa !9
  %24 = getelementptr inbounds nuw %struct.ref_entry, ptr %23, i32 0, i32 0
  %25 = load i8, ptr %24, align 8, !tbaa !21
  %26 = zext i8 %25 to i32
  %27 = and i32 %26, 16
  %28 = icmp ne i32 %27, 0
  br i1 %28, label %29, label %33

29:                                               ; preds = %22, %15
  %30 = load ptr, ptr %4, align 8, !tbaa !9
  %31 = getelementptr inbounds nuw %struct.ref_entry, ptr %30, i32 0, i32 2
  %32 = getelementptr inbounds [0 x i8], ptr %31, i64 0, i64 0
  call void (ptr, ...) @die(ptr noundef @.str.5, ptr noundef %32) #9
  unreachable

33:                                               ; preds = %22
  %34 = load ptr, ptr %4, align 8, !tbaa !9
  %35 = getelementptr inbounds nuw %struct.ref_entry, ptr %34, i32 0, i32 1
  %36 = getelementptr inbounds nuw %struct.ref_value, ptr %35, i32 0, i32 0
  %37 = load ptr, ptr %5, align 8, !tbaa !9
  %38 = getelementptr inbounds nuw %struct.ref_entry, ptr %37, i32 0, i32 1
  %39 = getelementptr inbounds nuw %struct.ref_value, ptr %38, i32 0, i32 0
  %40 = call i32 @oideq(ptr noundef %36, ptr noundef %39)
  %41 = icmp ne i32 %40, 0
  br i1 %41, label %46, label %42

42:                                               ; preds = %33
  %43 = load ptr, ptr %4, align 8, !tbaa !9
  %44 = getelementptr inbounds nuw %struct.ref_entry, ptr %43, i32 0, i32 2
  %45 = getelementptr inbounds [0 x i8], ptr %44, i64 0, i64 0
  call void (ptr, ...) @die(ptr noundef @.str.6, ptr noundef %45) #9
  unreachable

46:                                               ; preds = %33
  %47 = load ptr, ptr %4, align 8, !tbaa !9
  %48 = getelementptr inbounds nuw %struct.ref_entry, ptr %47, i32 0, i32 2
  %49 = getelementptr inbounds [0 x i8], ptr %48, i64 0, i64 0
  call void (ptr, ...) @warning(ptr noundef @.str.7, ptr noundef %49)
  store i32 1, ptr %3, align 4
  br label %50

50:                                               ; preds = %46, %14
  %51 = load i32, ptr %3, align 4
  ret i32 %51
}

; Function Attrs: inlinehint nounwind uwtable
define internal void @sane_qsort(ptr noundef %0, i64 noundef %1, i64 noundef %2, ptr noundef %3) #2 {
  %5 = alloca ptr, align 8
  %6 = alloca i64, align 8
  %7 = alloca i64, align 8
  %8 = alloca ptr, align 8
  store ptr %0, ptr %5, align 8, !tbaa !35
  store i64 %1, ptr %6, align 8, !tbaa !19
  store i64 %2, ptr %7, align 8, !tbaa !19
  store ptr %3, ptr %8, align 8, !tbaa !35
  %9 = load i64, ptr %6, align 8, !tbaa !19
  %10 = icmp ugt i64 %9, 1
  br i1 %10, label %11, label %16

11:                                               ; preds = %4
  %12 = load ptr, ptr %5, align 8, !tbaa !35
  %13 = load i64, ptr %6, align 8, !tbaa !19
  %14 = load i64, ptr %7, align 8, !tbaa !19
  %15 = load ptr, ptr %8, align 8, !tbaa !35
  call void @qsort(ptr noundef %12, i64 noundef %13, i64 noundef %14, ptr noundef %15)
  br label %16

16:                                               ; preds = %11, %4
  ret void
}

; Function Attrs: nounwind uwtable
define internal void @sort_ref_dir(ptr noundef %0) #0 {
  %2 = alloca ptr, align 8
  %3 = alloca i32, align 4
  %4 = alloca i32, align 4
  %5 = alloca ptr, align 8
  %6 = alloca i32, align 4
  %7 = alloca ptr, align 8
  store ptr %0, ptr %2, align 8, !tbaa !4
  call void @llvm.lifetime.start.p0(i64 4, ptr %3) #10
  call void @llvm.lifetime.start.p0(i64 4, ptr %4) #10
  call void @llvm.lifetime.start.p0(i64 8, ptr %5) #10
  store ptr null, ptr %5, align 8, !tbaa !9
  %8 = load ptr, ptr %2, align 8, !tbaa !4
  %9 = getelementptr inbounds nuw %struct.ref_dir, ptr %8, i32 0, i32 2
  %10 = load i32, ptr %9, align 8, !tbaa !18
  %11 = load ptr, ptr %2, align 8, !tbaa !4
  %12 = getelementptr inbounds nuw %struct.ref_dir, ptr %11, i32 0, i32 0
  %13 = load i32, ptr %12, align 8, !tbaa !11
  %14 = icmp eq i32 %10, %13
  br i1 %14, label %15, label %16

15:                                               ; preds = %1
  store i32 1, ptr %6, align 4
  br label %66

16:                                               ; preds = %1
  %17 = load ptr, ptr %2, align 8, !tbaa !4
  %18 = getelementptr inbounds nuw %struct.ref_dir, ptr %17, i32 0, i32 4
  %19 = load ptr, ptr %18, align 8, !tbaa !17
  %20 = load ptr, ptr %2, align 8, !tbaa !4
  %21 = getelementptr inbounds nuw %struct.ref_dir, ptr %20, i32 0, i32 0
  %22 = load i32, ptr %21, align 8, !tbaa !11
  %23 = sext i32 %22 to i64
  call void @sane_qsort(ptr noundef %19, i64 noundef %23, i64 noundef 8, ptr noundef @ref_entry_cmp)
  store i32 0, ptr %3, align 4, !tbaa !31
  store i32 0, ptr %4, align 4, !tbaa !31
  br label %24

24:                                               ; preds = %57, %16
  %25 = load i32, ptr %4, align 4, !tbaa !31
  %26 = load ptr, ptr %2, align 8, !tbaa !4
  %27 = getelementptr inbounds nuw %struct.ref_dir, ptr %26, i32 0, i32 0
  %28 = load i32, ptr %27, align 8, !tbaa !11
  %29 = icmp slt i32 %25, %28
  br i1 %29, label %30, label %60

30:                                               ; preds = %24
  call void @llvm.lifetime.start.p0(i64 8, ptr %7) #10
  %31 = load ptr, ptr %2, align 8, !tbaa !4
  %32 = getelementptr inbounds nuw %struct.ref_dir, ptr %31, i32 0, i32 4
  %33 = load ptr, ptr %32, align 8, !tbaa !17
  %34 = load i32, ptr %4, align 4, !tbaa !31
  %35 = sext i32 %34 to i64
  %36 = getelementptr inbounds ptr, ptr %33, i64 %35
  %37 = load ptr, ptr %36, align 8, !tbaa !9
  store ptr %37, ptr %7, align 8, !tbaa !9
  %38 = load ptr, ptr %5, align 8, !tbaa !9
  %39 = icmp ne ptr %38, null
  br i1 %39, label %40, label %47

40:                                               ; preds = %30
  %41 = load ptr, ptr %5, align 8, !tbaa !9
  %42 = load ptr, ptr %7, align 8, !tbaa !9
  %43 = call i32 @is_dup_ref(ptr noundef %41, ptr noundef %42)
  %44 = icmp ne i32 %43, 0
  br i1 %44, label %45, label %47

45:                                               ; preds = %40
  %46 = load ptr, ptr %7, align 8, !tbaa !9
  call void @free_ref_entry(ptr noundef %46)
  br label %56

47:                                               ; preds = %40, %30
  %48 = load ptr, ptr %7, align 8, !tbaa !9
  %49 = load ptr, ptr %2, align 8, !tbaa !4
  %50 = getelementptr inbounds nuw %struct.ref_dir, ptr %49, i32 0, i32 4
  %51 = load ptr, ptr %50, align 8, !tbaa !17
  %52 = load i32, ptr %3, align 4, !tbaa !31
  %53 = add nsw i32 %52, 1
  store i32 %53, ptr %3, align 4, !tbaa !31
  %54 = sext i32 %52 to i64
  %55 = getelementptr inbounds ptr, ptr %51, i64 %54
  store ptr %48, ptr %55, align 8, !tbaa !9
  store ptr %48, ptr %5, align 8, !tbaa !9
  br label %56

56:                                               ; preds = %47, %45
  call void @llvm.lifetime.end.p0(i64 8, ptr %7) #10
  br label %57

57:                                               ; preds = %56
  %58 = load i32, ptr %4, align 4, !tbaa !31
  %59 = add nsw i32 %58, 1
  store i32 %59, ptr %4, align 4, !tbaa !31
  br label %24, !llvm.loop !42

60:                                               ; preds = %24
  %61 = load i32, ptr %3, align 4, !tbaa !31
  %62 = load ptr, ptr %2, align 8, !tbaa !4
  %63 = getelementptr inbounds nuw %struct.ref_dir, ptr %62, i32 0, i32 0
  store i32 %61, ptr %63, align 8, !tbaa !11
  %64 = load ptr, ptr %2, align 8, !tbaa !4
  %65 = getelementptr inbounds nuw %struct.ref_dir, ptr %64, i32 0, i32 2
  store i32 %61, ptr %65, align 8, !tbaa !18
  store i32 0, ptr %6, align 4
  br label %66

66:                                               ; preds = %60, %15
  call void @llvm.lifetime.end.p0(i64 8, ptr %5) #10
  call void @llvm.lifetime.end.p0(i64 4, ptr %4) #10
  call void @llvm.lifetime.end.p0(i64 4, ptr %3) #10
  %67 = load i32, ptr %6, align 4
  switch i32 %67, label %69 [
    i32 0, label %68
    i32 1, label %68
  ]

68:                                               ; preds = %66, %66
  ret void

69:                                               ; preds = %66
  unreachable
}