; Function Attrs: nounwind uwtable
define internal fastcc void @sort_ref_dir(ptr noundef captures(none) %0) unnamed_addr #0 {
  %2 = getelementptr inbounds nuw i8, ptr %0, i64 8
  %3 = load i32, ptr %2, align 8, !tbaa !16
  %4 = load i32, ptr %0, align 8, !tbaa !4
  %5 = icmp eq i32 %3, %4
  br i1 %5, label %41, label %6

6:                                                ; preds = %1
  %7 = getelementptr inbounds nuw i8, ptr %0, i64 24
  %8 = icmp ugt i32 %4, 1
  br i1 %8, label %9, label %sane_qsort.exit

9:                                                ; preds = %6
  %10 = sext i32 %4 to i64
  %11 = load ptr, ptr %7, align 8, !tbaa !13
  tail call void @qsort(ptr noundef %11, i64 noundef range(i64 -2147483648, 2147483648) %10, i64 noundef 8, ptr noundef nonnull @ref_entry_cmp) #11
  %.pre = load i32, ptr %0, align 8, !tbaa !4
  br label %sane_qsort.exit

sane_qsort.exit:                                  ; preds = %6, %9
  %12 = phi i32 [ %4, %6 ], [ %.pre, %9 ]
  %13 = icmp sgt i32 %12, 0
  br i1 %13, label %.lr.ph, label %._crit_edge

.lr.ph:                                           ; preds = %sane_qsort.exit, %37
  %14 = phi i32 [ %38, %37 ], [ %12, %sane_qsort.exit ]
  %indvars.iv = phi i64 [ %indvars.iv.next, %37 ], [ 0, %sane_qsort.exit ]
  %.030 = phi i32 [ %.1, %37 ], [ 0, %sane_qsort.exit ]
  %.01829 = phi ptr [ %.119, %37 ], [ null, %sane_qsort.exit ]
  %15 = load ptr, ptr %7, align 8, !tbaa !13
  %16 = getelementptr inbounds nuw ptr, ptr %15, i64 %indvars.iv
  %17 = load ptr, ptr %16, align 8, !tbaa !14
  %.not = icmp eq ptr %.01829, null
  br i1 %.not, label %is_dup_ref.exit.thread, label %18

18:                                               ; preds = %.lr.ph
  %19 = getelementptr inbounds nuw i8, ptr %.01829, i64 56
  %20 = getelementptr inbounds nuw i8, ptr %17, i64 56
  %21 = tail call i32 @strcmp(ptr noundef nonnull dereferenceable(1) %19, ptr noundef nonnull readonly dereferenceable(1) %20) #12
  %.not.i = icmp eq i32 %21, 0
  br i1 %.not.i, label %22, label %is_dup_ref.exit.thread

22:                                               ; preds = %18
  %23 = load i8, ptr %.01829, align 8, !tbaa !17
  %24 = and i8 %23, 16
  %.not9.i = icmp eq i8 %24, 0
  br i1 %.not9.i, label %25, label %28

25:                                               ; preds = %22
  %26 = load i8, ptr %17, align 8, !tbaa !17
  %27 = and i8 %26, 16
  %.not10.i = icmp eq i8 %27, 0
  br i1 %.not10.i, label %29, label %28

28:                                               ; preds = %25, %22
  tail call void (ptr, ...) @die(ptr noundef nonnull @.str.5, ptr noundef nonnull %19) #10
  unreachable

29:                                               ; preds = %25
  %30 = getelementptr inbounds nuw i8, ptr %.01829, i64 8
  %31 = getelementptr inbounds nuw i8, ptr %17, i64 8
  %bcmp.i.i = tail call i32 @bcmp(ptr noundef nonnull readonly dereferenceable(32) %30, ptr noundef nonnull readonly dereferenceable(32) %31, i64 32)
  %.not.i.not.i = icmp eq i32 %bcmp.i.i, 0
  br i1 %.not.i.not.i, label %33, label %32

32:                                               ; preds = %29
  tail call void (ptr, ...) @die(ptr noundef nonnull @.str.6, ptr noundef nonnull %19) #10
  unreachable

33:                                               ; preds = %29
  tail call void (ptr, ...) @warning(ptr noundef nonnull @.str.7, ptr noundef nonnull %19) #11
  tail call fastcc void @free_ref_entry(ptr noundef nonnull %17)
  %.pre33 = load i32, ptr %0, align 8, !tbaa !4
  br label %37

is_dup_ref.exit.thread:                           ; preds = %18, %.lr.ph
  %34 = add nsw i32 %.030, 1
  %35 = sext i32 %.030 to i64
  %36 = getelementptr inbounds ptr, ptr %15, i64 %35
  store ptr %17, ptr %36, align 8, !tbaa !14
  br label %37

37:                                               ; preds = %is_dup_ref.exit.thread, %33
  %38 = phi i32 [ %.pre33, %33 ], [ %14, %is_dup_ref.exit.thread ]
  %.119 = phi ptr [ %.01829, %33 ], [ %17, %is_dup_ref.exit.thread ]
  %.1 = phi i32 [ %.030, %33 ], [ %34, %is_dup_ref.exit.thread ]
  %indvars.iv.next = add nuw nsw i64 %indvars.iv, 1
  %39 = sext i32 %38 to i64
  %40 = icmp slt i64 %indvars.iv.next, %39
  br i1 %40, label %.lr.ph, label %._crit_edge, !llvm.loop !29

._crit_edge:                                      ; preds = %37, %sane_qsort.exit
  %.0.lcssa = phi i32 [ 0, %sane_qsort.exit ], [ %.1, %37 ]
  store i32 %.0.lcssa, ptr %0, align 8, !tbaa !4
  store i32 %.0.lcssa, ptr %2, align 8, !tbaa !16
  br label %41

41:                                               ; preds = %1, %._crit_edge
  ret void
}